target datalayout = "e-m:e-p270:32:32-p271:32:32-p272:64:64-i64:64-i128:128-f80:128-n8:16:32:64-S128"
target triple = "x86_64-pc-linux-gnu"

%struct.CRYPTO_REF_COUNT = type { i32 }
%struct.crypto_ex_data_st = type { ptr, ptr }
%struct.evp_pkey_st = type { i32, i32, ptr, ptr, ptr, %union.legacy_pkey_st, %union.legacy_pkey_st, %struct.CRYPTO_REF_COUNT, ptr, ptr, i32, i8, %struct.crypto_ex_data_st, ptr, ptr, i64, ptr, i64, %struct.anon }
%union.legacy_pkey_st = type { ptr }
%struct.anon = type { i32, i32, i32 }

; Function Attrs: nounwind uwtable
define internal i32 @dh_pkey_ctrl(ptr noundef %0, i32 noundef %1, i64 noundef %2, ptr noundef %3) #0 {
  %5 = alloca i32, align 4
  %6 = alloca ptr, align 8
  %7 = alloca i32, align 4
  %8 = alloca i64, align 8
  %9 = alloca ptr, align 8
  %10 = alloca ptr, align 8
  %11 = alloca i32, align 4
  store ptr %0, ptr %6, align 8, !tbaa !32
  store i32 %1, ptr %7, align 4, !tbaa !8
  store i64 %2, ptr %8, align 8, !tbaa !62
  store ptr %3, ptr %9, align 8, !tbaa !40
  call void @llvm.lifetime.start.p0(i64 8, ptr %10) #4
  %12 = load i32, ptr %7, align 4, !tbaa !8
  switch i32 %12, label %56 [
    i32 9, label %13
    i32 10, label %45
  ]

13:                                               ; preds = %4
  %14 = load ptr, ptr %6, align 8, !tbaa !32
  %15 = getelementptr inbounds nuw %struct.evp_pkey_st, ptr %14, i32 0, i32 0
  %16 = load i32, ptr %15, align 8, !tbaa !63
  %17 = icmp ne i32 %16, 0
  br i1 %17, label %18, label %23

18:                                               ; preds = %13
  %19 = load ptr, ptr %6, align 8, !tbaa !32
  %20 = getelementptr inbounds nuw %struct.evp_pkey_st, ptr %19, i32 0, i32 13
  %21 = load ptr, ptr %20, align 8, !tbaa !64
  %22 = icmp eq ptr %21, null
  br label %23

23:                                               ; preds = %18, %13
  %24 = phi i1 [ false, %13 ], [ %22, %18 ]
  %25 = zext i1 %24 to i32
  %26 = icmp ne i32 %25, 0
  %27 = xor i1 %26, true
  %28 = xor i1 %27, true
  %29 = zext i1 %28 to i32
  %30 = sext i32 %29 to i64
  %31 = call i64 @llvm.expect.i64(i64 %30, i64 1)
  %32 = icmp ne i64 %31, 0
  br i1 %32, label %34, label %33

33:                                               ; preds = %23
  store i32 0, ptr %5, align 4
  store i32 1, ptr %11, align 4
  br label %57

34:                                               ; preds = %23
  %35 = load ptr, ptr %6, align 8, !tbaa !32
  %36 = call ptr @evp_pkey_get0_DH_int(ptr noundef %35)
  store ptr %36, ptr %10, align 8, !tbaa !3
  %37 = load ptr, ptr %10, align 8, !tbaa !3
  %38 = icmp eq ptr %37, null
  br i1 %38, label %39, label %40

39:                                               ; preds = %34
  store i32 0, ptr %5, align 4
  store i32 1, ptr %11, align 4
  br label %57

40:                                               ; preds = %34
  %41 = load ptr, ptr %10, align 8, !tbaa !3
  %42 = load ptr, ptr %9, align 8, !tbaa !40
  %43 = load i64, ptr %8, align 8, !tbaa !62
  %44 = call i32 @ossl_dh_buf2key(ptr noundef %41, ptr noundef %42, i64 noundef %43)
  store i32 %44, ptr %5, align 4
  store i32 1, ptr %11, align 4
  br label %57

45:                                               ; preds = %4
  %46 = load ptr, ptr %6, align 8, !tbaa !32
  %47 = call ptr @EVP_PKEY_get0_DH(ptr noundef %46)
  store ptr %47, ptr %10, align 8, !tbaa !3
  %48 = load ptr, ptr %10, align 8, !tbaa !3
  %49 = icmp eq ptr %48, null
  br i1 %49, label %50, label %51

50:                                               ; preds = %45
  store i32 0, ptr %5, align 4
  store i32 1, ptr %11, align 4
  br label %57

51:                                               ; preds = %45
  %52 = load ptr, ptr %10, align 8, !tbaa !3
  %53 = load ptr, ptr %9, align 8, !tbaa !40
  %54 = call i64 @ossl_dh_key2buf(ptr noundef %52, ptr noundef %53, i64 noundef 0, i32 noundef 1)
  %55 = trunc i64 %54 to i32
  store i32 %55, ptr %5, align 4
  store i32 1, ptr %11, align 4
  br label %57

56:                                               ; preds = %4
  store i32 -2, ptr %5, align 4
  store i32 1, ptr %11, align 4
  br label %57

57:                                               ; preds = %56, %51, %50, %40, %39, %33
  call void @llvm.lifetime.end.p0(i64 8, ptr %10) #4
  %58 = load i32, ptr %5, align 4
  ret i32 %58
}