; Function Attrs: nounwind uwtable
define internal i32 @dh_pkey_ctrl(ptr noundef %0, i32 noundef %1, i64 noundef %2, ptr noundef %3) #0 {
  switch i32 %1, label %.critedge [
    i32 9, label %5
    i32 10, label %16
  ]

5:                                                ; preds = %4
  %6 = load i32, ptr %0, align 8, !tbaa !45
  %.not = icmp eq i32 %6, 0
  br i1 %.not, label %.critedge, label %7

7:                                                ; preds = %5
  %8 = getelementptr inbounds nuw i8, ptr %0, i64 96
  %9 = load ptr, ptr %8, align 8, !tbaa !46
  %10 = icmp eq ptr %9, null
  br i1 %10, label %11, label %.critedge, !prof !47

11:                                               ; preds = %7
  %12 = tail call ptr @evp_pkey_get0_DH_int(ptr noundef nonnull %0) #5
  %13 = icmp eq ptr %12, null
  br i1 %13, label %.critedge, label %14

14:                                               ; preds = %11
  %15 = tail call i32 @ossl_dh_buf2key(ptr noundef nonnull %12, ptr noundef %3, i64 noundef %2) #5
  br label %.critedge

16:                                               ; preds = %4
  %17 = tail call ptr @EVP_PKEY_get0_DH(ptr noundef %0) #5
  %18 = icmp eq ptr %17, null
  br i1 %18, label %.critedge, label %19

19:                                               ; preds = %16
  %20 = tail call i64 @ossl_dh_key2buf(ptr noundef nonnull %17, ptr noundef %3, i64 noundef 0, i32 noundef 1) #5
  %21 = trunc i64 %20 to i32
  br label %.critedge

.critedge:                                        ; preds = %5, %4, %16, %11, %7, %19, %14
  %.0 = phi i32 [ %21, %19 ], [ %15, %14 ], [ 0, %7 ], [ 0, %11 ], [ 0, %16 ], [ -2, %4 ], [ 0, %5 ]
  ret i32 %.0
}